target datalayout = "e-m:e-p270:32:32-p271:32:32-p272:64:64-i64:64-i128:128-f80:128-n8:16:32:64-S128"
target triple = "x86_64-pc-linux-gnu"

%struct.Ssc_Man_t_ = type { ptr, ptr, ptr, ptr, ptr, ptr, ptr, ptr, i32, i32, ptr, ptr, ptr, ptr, i32, i32, i32, i32, i32, i32, i32, i64, i64, i64, i64, i64, i64, i64, i64, i64 }
%struct.Vec_Int_t_ = type { i32, i32, ptr }
%struct.Gia_Man_t_ = type { ptr, ptr, i32, i32, i32, i32, ptr, ptr, i32, i32, i32, ptr, ptr, %struct.Vec_Int_t_, %struct.Vec_Int_t_, i32, i32, i32, %struct.Vec_Int_t_, ptr, ptr, ptr, i32, i32, i32, i32, ptr, ptr, ptr, ptr, ptr, i32, i32, ptr, i32, ptr, ptr, ptr, ptr, ptr, ptr, ptr, ptr, ptr, ptr, ptr, ptr, ptr, ptr, ptr, ptr, ptr, ptr, %struct.Vec_Int_t_, %struct.Vec_Int_t_, ptr, ptr, ptr, ptr, ptr, ptr, ptr, ptr, ptr, ptr, ptr, ptr, ptr, ptr, ptr, ptr, ptr, ptr, ptr, ptr, ptr, i32, float, float, ptr, ptr, i32, ptr, ptr, ptr, ptr, ptr, ptr, ptr, ptr, ptr, ptr, ptr, ptr, ptr, ptr, ptr, i64, i64, ptr, ptr, i32, i32, i32, i32, i32, i32, i32, i32, i32, i32, i32, i32, ptr, ptr, ptr, ptr, ptr, ptr, ptr, ptr, i32, i32, i32, ptr, i32, i32, ptr, ptr, ptr, ptr, ptr, ptr, i32, i32, ptr, %struct.Vec_Int_t_, %struct.Vec_Int_t_, %struct.Vec_Int_t_, ptr, ptr, ptr, i32, i32, i32, i32, ptr, ptr, ptr, ptr, ptr }
%struct.Gia_Obj_t_ = type <{ i64, i32 }>

; Function Attrs: inlinehint nounwind uwtable
define internal i32 @Gia_ObjId(ptr noundef %0, ptr noundef %1) #2 {
  %3 = alloca ptr, align 8
  %4 = alloca ptr, align 8
  store ptr %0, ptr %3, align 8, !tbaa !29
  store ptr %1, ptr %4, align 8, !tbaa !80
  %5 = load ptr, ptr %4, align 8, !tbaa !80
  %6 = load ptr, ptr %3, align 8, !tbaa !29
  %7 = getelementptr inbounds nuw %struct.Gia_Man_t_, ptr %6, i32 0, i32 6
  %8 = load ptr, ptr %7, align 8, !tbaa !84
  %9 = ptrtoint ptr %5 to i64
  %10 = ptrtoint ptr %8 to i64
  %11 = sub i64 %9, %10
  %12 = sdiv exact i64 %11, 12
  %13 = trunc i64 %12 to i32
  ret i32 %13
}

; Function Attrs: inlinehint nounwind uwtable
define internal i32 @Gia_ObjFaninC1(ptr noundef %0) #2 {
  %2 = alloca ptr, align 8
  store ptr %0, ptr %2, align 8, !tbaa !80
  %3 = load ptr, ptr %2, align 8, !tbaa !80
  %4 = load i64, ptr %3, align 4
  %5 = lshr i64 %4, 61
  %6 = and i64 %5, 1
  %7 = trunc i64 %6 to i32
  ret i32 %7
}

; Function Attrs: inlinehint nounwind uwtable
define internal i32 @Gia_ObjFaninC0(ptr noundef %0) #2 {
  %2 = alloca ptr, align 8
  store ptr %0, ptr %2, align 8, !tbaa !80
  %3 = load ptr, ptr %2, align 8, !tbaa !80
  %4 = load i64, ptr %3, align 4
  %5 = lshr i64 %4, 29
  %6 = and i64 %5, 1
  %7 = trunc i64 %6 to i32
  ret i32 %7
}

; Function Attrs: inlinehint nounwind uwtable
define internal ptr @Gia_ObjFanin1(ptr noundef %0) #2 {
  %2 = alloca ptr, align 8
  store ptr %0, ptr %2, align 8, !tbaa !80
  %3 = load ptr, ptr %2, align 8, !tbaa !80
  %4 = load ptr, ptr %2, align 8, !tbaa !80
  %5 = load i64, ptr %4, align 4
  %6 = lshr i64 %5, 32
  %7 = and i64 %6, 536870911
  %8 = trunc i64 %7 to i32
  %9 = sext i32 %8 to i64
  %10 = sub i64 0, %9
  %11 = getelementptr inbounds %struct.Gia_Obj_t_, ptr %3, i64 %10
  ret ptr %11
}

; Function Attrs: inlinehint nounwind uwtable
define internal ptr @Gia_ObjFanin0(ptr noundef %0) #2 {
  %2 = alloca ptr, align 8
  store ptr %0, ptr %2, align 8, !tbaa !80
  %3 = load ptr, ptr %2, align 8, !tbaa !80
  %4 = load ptr, ptr %2, align 8, !tbaa !80
  %5 = load i64, ptr %4, align 4
  %6 = and i64 %5, 536870911
  %7 = trunc i64 %6 to i32
  %8 = sext i32 %7 to i64
  %9 = sub i64 0, %8
  %10 = getelementptr inbounds %struct.Gia_Obj_t_, ptr %3, i64 %9
  ret ptr %10
}

; Function Attrs: inlinehint nounwind uwtable
define internal i32 @Abc_LitIsCompl(i32 noundef %0) #2 {
  %2 = alloca i32, align 4
  store i32 %0, ptr %2, align 4, !tbaa !60
  %3 = load i32, ptr %2, align 4, !tbaa !60
  %4 = and i32 %3, 1
  ret i32 %4
}

; Function Attrs: inlinehint nounwind uwtable
define internal i32 @Abc_Lit2Var(i32 noundef %0) #2 {
  %2 = alloca i32, align 4
  store i32 %0, ptr %2, align 4, !tbaa !60
  %3 = load i32, ptr %2, align 4, !tbaa !60
  %4 = ashr i32 %3, 1
  ret i32 %4
}

; Function Attrs: inlinehint nounwind uwtable
define internal void @Gia_ObjSetTravIdCurrent(ptr noundef %0, ptr noundef %1) #2 {
  %3 = alloca ptr, align 8
  %4 = alloca ptr, align 8
  store ptr %0, ptr %3, align 8, !tbaa !29
  store ptr %1, ptr %4, align 8, !tbaa !80
  %5 = load ptr, ptr %3, align 8, !tbaa !29
  %6 = getelementptr inbounds nuw %struct.Gia_Man_t_, ptr %5, i32 0, i32 24
  %7 = load i32, ptr %6, align 8, !tbaa !101
  %8 = load ptr, ptr %3, align 8, !tbaa !29
  %9 = getelementptr inbounds nuw %struct.Gia_Man_t_, ptr %8, i32 0, i32 80
  %10 = load ptr, ptr %9, align 8, !tbaa !100
  %11 = load ptr, ptr %3, align 8, !tbaa !29
  %12 = load ptr, ptr %4, align 8, !tbaa !80
  %13 = call i32 @Gia_ObjId(ptr noundef %11, ptr noundef %12)
  %14 = sext i32 %13 to i64
  %15 = getelementptr inbounds i32, ptr %10, i64 %14
  store i32 %7, ptr %15, align 4, !tbaa !60
  ret void
}

; Function Attrs: inlinehint nounwind uwtable
define internal i32 @Gia_ObjIsTravIdCurrent(ptr noundef %0, ptr noundef %1) #2 {
  %3 = alloca ptr, align 8
  %4 = alloca ptr, align 8
  store ptr %0, ptr %3, align 8, !tbaa !29
  store ptr %1, ptr %4, align 8, !tbaa !80
  %5 = load ptr, ptr %3, align 8, !tbaa !29
  %6 = getelementptr inbounds nuw %struct.Gia_Man_t_, ptr %5, i32 0, i32 80
  %7 = load ptr, ptr %6, align 8, !tbaa !100
  %8 = load ptr, ptr %3, align 8, !tbaa !29
  %9 = load ptr, ptr %4, align 8, !tbaa !80
  %10 = call i32 @Gia_ObjId(ptr noundef %8, ptr noundef %9)
  %11 = sext i32 %10 to i64
  %12 = getelementptr inbounds i32, ptr %7, i64 %11
  %13 = load i32, ptr %12, align 4, !tbaa !60
  %14 = load ptr, ptr %3, align 8, !tbaa !29
  %15 = getelementptr inbounds nuw %struct.Gia_Man_t_, ptr %14, i32 0, i32 24
  %16 = load i32, ptr %15, align 8, !tbaa !101
  %17 = icmp eq i32 %13, %16
  %18 = zext i1 %17 to i32
  ret i32 %18
}

; Function Attrs: nounwind uwtable
define i32 @Ssc_GiaSimulatePattern_rec(ptr noundef %0, ptr noundef %1) #0 {
  %3 = alloca i32, align 4
  %4 = alloca ptr, align 8
  %5 = alloca ptr, align 8
  %6 = alloca i32, align 4
  %7 = alloca i32, align 4
  %8 = alloca i32, align 4
  store ptr %0, ptr %4, align 8, !tbaa !15
  store ptr %1, ptr %5, align 8, !tbaa !80
  call void @llvm.lifetime.start.p0(i64 4, ptr %6) #13
  call void @llvm.lifetime.start.p0(i64 4, ptr %7) #13
  %9 = load ptr, ptr %4, align 8, !tbaa !15
  %10 = getelementptr inbounds nuw %struct.Ssc_Man_t_, ptr %9, i32 0, i32 1
  %11 = load ptr, ptr %10, align 8, !tbaa !31
  %12 = load ptr, ptr %5, align 8, !tbaa !80
  %13 = call i32 @Gia_ObjIsTravIdCurrent(ptr noundef %11, ptr noundef %12)
  %14 = icmp ne i32 %13, 0
  br i1 %14, label %15, label %21

15:                                               ; preds = %2
  %16 = load ptr, ptr %5, align 8, !tbaa !80
  %17 = load i64, ptr %16, align 4
  %18 = lshr i64 %17, 30
  %19 = and i64 %18, 1
  %20 = trunc i64 %19 to i32
  store i32 %20, ptr %3, align 4
  store i32 1, ptr %8, align 4
  br label %82

21:                                               ; preds = %2
  %22 = load ptr, ptr %4, align 8, !tbaa !15
  %23 = getelementptr inbounds nuw %struct.Ssc_Man_t_, ptr %22, i32 0, i32 1
  %24 = load ptr, ptr %23, align 8, !tbaa !31
  %25 = load ptr, ptr %5, align 8, !tbaa !80
  call void @Gia_ObjSetTravIdCurrent(ptr noundef %24, ptr noundef %25)
  %26 = load ptr, ptr %5, align 8, !tbaa !80
  %27 = getelementptr inbounds nuw %struct.Gia_Obj_t_, ptr %26, i32 0, i32 1
  %28 = load i32, ptr %27, align 4, !tbaa !98
  %29 = xor i32 %28, -1
  %30 = icmp ne i32 %29, 0
  br i1 %30, label %31, label %51

31:                                               ; preds = %21
  %32 = load ptr, ptr %4, align 8, !tbaa !15
  %33 = load ptr, ptr %5, align 8, !tbaa !80
  %34 = getelementptr inbounds nuw %struct.Gia_Obj_t_, ptr %33, i32 0, i32 1
  %35 = load i32, ptr %34, align 4, !tbaa !98
  %36 = call i32 @Abc_Lit2Var(i32 noundef %35)
  %37 = call i32 @Ssc_GiaSimulatePatternFraig_rec(ptr noundef %32, i32 noundef %36)
  store i32 %37, ptr %6, align 4, !tbaa !60
  %38 = load i32, ptr %6, align 4, !tbaa !60
  %39 = load ptr, ptr %5, align 8, !tbaa !80
  %40 = getelementptr inbounds nuw %struct.Gia_Obj_t_, ptr %39, i32 0, i32 1
  %41 = load i32, ptr %40, align 4, !tbaa !98
  %42 = call i32 @Abc_LitIsCompl(i32 noundef %41)
  %43 = xor i32 %38, %42
  %44 = load ptr, ptr %5, align 8, !tbaa !80
  %45 = zext i32 %43 to i64
  %46 = load i64, ptr %44, align 4
  %47 = and i64 %45, 1
  %48 = shl i64 %47, 30
  %49 = and i64 %46, -1073741825
  %50 = or i64 %49, %48
  store i64 %50, ptr %44, align 4
  br label %76

51:                                               ; preds = %21
  %52 = load ptr, ptr %4, align 8, !tbaa !15
  %53 = load ptr, ptr %5, align 8, !tbaa !80
  %54 = call ptr @Gia_ObjFanin0(ptr noundef %53)
  %55 = call i32 @Ssc_GiaSimulatePattern_rec(ptr noundef %52, ptr noundef %54)
  store i32 %55, ptr %6, align 4, !tbaa !60
  %56 = load ptr, ptr %4, align 8, !tbaa !15
  %57 = load ptr, ptr %5, align 8, !tbaa !80
  %58 = call ptr @Gia_ObjFanin1(ptr noundef %57)
  %59 = call i32 @Ssc_GiaSimulatePattern_rec(ptr noundef %56, ptr noundef %58)
  store i32 %59, ptr %7, align 4, !tbaa !60
  %60 = load i32, ptr %6, align 4, !tbaa !60
  %61 = load ptr, ptr %5, align 8, !tbaa !80
  %62 = call i32 @Gia_ObjFaninC0(ptr noundef %61)
  %63 = xor i32 %60, %62
  %64 = load i32, ptr %7, align 4, !tbaa !60
  %65 = load ptr, ptr %5, align 8, !tbaa !80
  %66 = call i32 @Gia_ObjFaninC1(ptr noundef %65)
  %67 = xor i32 %64, %66
  %68 = and i32 %63, %67
  %69 = load ptr, ptr %5, align 8, !tbaa !80
  %70 = zext i32 %68 to i64
  %71 = load i64, ptr %69, align 4
  %72 = and i64 %70, 1
  %73 = shl i64 %72, 30
  %74 = and i64 %71, -1073741825
  %75 = or i64 %74, %73
  store i64 %75, ptr %69, align 4
  br label %76

76:                                               ; preds = %51, %31
  %77 = load ptr, ptr %5, align 8, !tbaa !80
  %78 = load i64, ptr %77, align 4
  %79 = lshr i64 %78, 30
  %80 = and i64 %79, 1
  %81 = trunc i64 %80 to i32
  store i32 %81, ptr %3, align 4
  store i32 1, ptr %8, align 4
  br label %82

82:                                               ; preds = %76, %15
  call void @llvm.lifetime.end.p0(i64 4, ptr %7) #13
  call void @llvm.lifetime.end.p0(i64 4, ptr %6) #13
  %83 = load i32, ptr %3, align 4
  ret i32 %83
}