; Function Attrs: nofree nosync nounwind memory(readwrite, inaccessiblemem: none) uwtable
define range(i32 0, 2) i32 @Ssc_GiaSimulatePattern_rec(ptr noundef %0, ptr noundef %1) local_unnamed_addr #9 {
  %3 = getelementptr inbounds nuw i8, ptr %0, i64 8
  %4 = load ptr, ptr %3, align 8, !tbaa !24
  %5 = getelementptr inbounds nuw i8, ptr %4, i64 616
  %6 = load ptr, ptr %5, align 8, !tbaa !95
  %7 = getelementptr i8, ptr %4, i64 32
  %.val.i = load ptr, ptr %7, align 8, !tbaa !80
  %8 = ptrtoint ptr %1 to i64
  %9 = ptrtoint ptr %.val.i to i64
  %10 = sub i64 %8, %9
  %11 = sdiv exact i64 %10, 12
  %sext.i = shl i64 %11, 32
  %12 = ashr exact i64 %sext.i, 30
  %13 = getelementptr inbounds i8, ptr %6, i64 %12
  %14 = load i32, ptr %13, align 4, !tbaa !44
  %15 = getelementptr inbounds nuw i8, ptr %4, i64 176
  %16 = load i32, ptr %15, align 8, !tbaa !96
  %.not = icmp eq i32 %14, %16
  br i1 %.not, label %17, label %19

17:                                               ; preds = %2
  %18 = load i64, ptr %1, align 4
  br label %54

19:                                               ; preds = %2
  store i32 %16, ptr %13, align 4, !tbaa !44
  %20 = getelementptr inbounds nuw i8, ptr %1, i64 8
  %21 = load i32, ptr %20, align 4, !tbaa !97
  %.not21 = icmp eq i32 %21, -1
  br i1 %.not21, label %29, label %22

22:                                               ; preds = %19
  %23 = ashr i32 %21, 1
  %24 = tail call i32 @Ssc_GiaSimulatePatternFraig_rec(ptr noundef nonnull %0, i32 noundef %23)
  %25 = load i32, ptr %20, align 4, !tbaa !97
  %26 = and i32 %25, 1
  %27 = xor i32 %26, %24
  %28 = load i64, ptr %1, align 4
  br label %49

29:                                               ; preds = %19
  %30 = load i64, ptr %1, align 4
  %31 = and i64 %30, 536870911
  %32 = sub nsw i64 0, %31
  %33 = getelementptr inbounds %struct.Gia_Obj_t_, ptr %1, i64 %32
  %34 = tail call i32 @Ssc_GiaSimulatePattern_rec(ptr noundef nonnull %0, ptr noundef nonnull %33)
  %35 = load i64, ptr %1, align 4
  %36 = lshr i64 %35, 32
  %37 = and i64 %36, 536870911
  %38 = sub nsw i64 0, %37
  %39 = getelementptr inbounds %struct.Gia_Obj_t_, ptr %1, i64 %38
  %40 = tail call i32 @Ssc_GiaSimulatePattern_rec(ptr noundef nonnull %0, ptr noundef nonnull %39)
  %.val = load i64, ptr %1, align 4
  %41 = trunc i64 %.val to i32
  %42 = lshr i32 %41, 29
  %43 = xor i32 %42, %34
  %44 = lshr i64 %.val, 61
  %45 = trunc nuw nsw i64 %44 to i32
  %46 = and i32 %45, 1
  %47 = xor i32 %46, %40
  %48 = and i32 %47, %43
  br label %49

49:                                               ; preds = %29, %22
  %.sink26 = phi i32 [ %48, %29 ], [ %27, %22 ]
  %.val.sink = phi i64 [ %.val, %29 ], [ %28, %22 ]
  %50 = shl nuw nsw i32 %.sink26, 30
  %51 = zext nneg i32 %50 to i64
  %52 = and i64 %.val.sink, -1073741825
  %53 = or disjoint i64 %52, %51
  store i64 %53, ptr %1, align 4
  br label %54

54:                                               ; preds = %49, %17
  %.0.in.in.in = phi i64 [ %18, %17 ], [ %53, %49 ]
  %.0.in.in = trunc i64 %.0.in.in.in to i32
  %.0.in = lshr i32 %.0.in.in, 30
  %.0 = and i32 %.0.in, 1
  ret i32 %.0
}